(lp0
(dp1
S'IngroupVirtue'
p2
F1.0
sS'AuthorityVice'
p3
I0
sS'PurityVice'
p4
I0
sS'IngroupVice'
p5
I0
sS'HarmVice'
p6
F0.0
sS'FairnessVirtue'
p7
F1.0
sS'AuthorityVirtue'
p8
F0.3333333333333333
sS'PurityVirtue'
p9
I0
sS'FairnessVice'
p10
I0
sS'HarmVirtue'
p11
F0.9
sa(dp12
g2
F0.14285714285714285
sg3
I0
sg4
I0
sg5
I0
sg6
F-0.625
sg7
F0.6
sg8
F0.5
sg9
I0
sg10
I0
sg11
F1.0
sa.